; ModuleID = '30/2956.c'
source_filename = "30/2956.c"
target datalayout = "e-m:e-p270:32:32-p271:32:32-p272:64:64-i64:64-f80:128-n8:16:32:64-S128"
target triple = "x86_64-pc-linux-gnu"

@.str = private unnamed_addr constant [4 x i8] c"%d\0A\00", align 1

; Function Attrs: noinline nounwind uwtable
define dso_local i32 @main() #0 {
  %1 = alloca i32, align 4
  %2 = alloca i32, align 4
  %3 = alloca i32, align 4
  %4 = alloca i32, align 4
  %5 = alloca i32, align 4
  %6 = alloca i32, align 4
  store i32 0, i32* %1, align 4
  store i32 0, i32* %3, align 4
  store i32 0, i32* %4, align 4
  %7 = call i32 (i8*, ...) @__isoc99_scanf(i8* getelementptr inbounds ([4 x i8], [4 x i8]* @.str, i64 0, i64 0), i32* %2)
  store i32 1, i32* %5, align 4
  br label %8

8:                                                ; preds = %45, %0
  %9 = load i32, i32* %5, align 4
  %10 = load i32, i32* %2, align 4
  %11 = icmp sle i32 %9, %10
  br i1 %11, label %12, label %48

12:                                               ; preds = %8
  %13 = load i32, i32* %5, align 4
  %14 = srem i32 %13, 7
  %15 = icmp eq i32 %14, 0
  br i1 %15, label %16, label %22

16:                                               ; preds = %12
  %17 = load i32, i32* %5, align 4
  %18 = load i32, i32* %5, align 4
  %19 = mul nsw i32 %17, %18
  %20 = load i32, i32* %3, align 4
  %21 = add nsw i32 %20, %19
  store i32 %21, i32* %3, align 4
  br label %44

22:                                               ; preds = %12
  %23 = load i32, i32* %5, align 4
  %24 = srem i32 %23, 10
  %25 = icmp eq i32 %24, 7
  br i1 %25, label %26, label %32

26:                                               ; preds = %22
  %27 = load i32, i32* %5, align 4
  %28 = load i32, i32* %5, align 4
  %29 = mul nsw i32 %27, %28
  %30 = load i32, i32* %3, align 4
  %31 = add nsw i32 %30, %29
  store i32 %31, i32* %3, align 4
  br label %43

32:                                               ; preds = %22
  %33 = load i32, i32* %5, align 4
  %34 = sdiv i32 %33, 10
  %35 = icmp eq i32 %34, 7
  br i1 %35, label %36, label %42

36:                                               ; preds = %32
  %37 = load i32, i32* %5, align 4
  %38 = load i32, i32* %5, align 4
  %39 = mul nsw i32 %37, %38
  %40 = load i32, i32* %3, align 4
  %41 = add nsw i32 %40, %39
  store i32 %41, i32* %3, align 4
  br label %42

42:                                               ; preds = %36, %32
  br label %43

43:                                               ; preds = %42, %26
  br label %44

44:                                               ; preds = %43, %16
  br label %45

45:                                               ; preds = %44
  %46 = load i32, i32* %5, align 4
  %47 = add nsw i32 %46, 1
  store i32 %47, i32* %5, align 4
  br label %8

48:                                               ; preds = %8
  store i32 1, i32* %6, align 4
  br label %49

49:                                               ; preds = %59, %48
  %50 = load i32, i32* %6, align 4
  %51 = load i32, i32* %2, align 4
  %52 = icmp sle i32 %50, %51
  br i1 %52, label %53, label %62

53:                                               ; preds = %49
  %54 = load i32, i32* %6, align 4
  %55 = load i32, i32* %6, align 4
  %56 = mul nsw i32 %54, %55
  %57 = load i32, i32* %4, align 4
  %58 = add nsw i32 %57, %56
  store i32 %58, i32* %4, align 4
  br label %59

59:                                               ; preds = %53
  %60 = load i32, i32* %6, align 4
  %61 = add nsw i32 %60, 1
  store i32 %61, i32* %6, align 4
  br label %49

62:                                               ; preds = %49
  %63 = load i32, i32* %4, align 4
  %64 = load i32, i32* %3, align 4
  %65 = sub nsw i32 %63, %64
  %66 = call i32 (i8*, ...) @printf(i8* getelementptr inbounds ([4 x i8], [4 x i8]* @.str, i64 0, i64 0), i32 %65)
  ret i32 0
}

declare dso_local i32 @__isoc99_scanf(i8*, ...) #1

declare dso_local i32 @printf(i8*, ...) #1


!llvm.module.flags = !{!0}
!llvm.ident = !{!1}

!0 = !{i32 1, !"wchar_size", i32 4}
!1 = !{!"clang version 10.0.0-4ubuntu1 "}
